target datalayout = "e-m:e-p270:32:32-p271:32:32-p272:64:64-i64:64-i128:128-f80:128-n8:16:32:64-S128"
target triple = "x86_64-pc-linux-gnu"

%"class.OpenColorIO_v2_5dev::BuiltinTransformImpl" = type { %"class.OpenColorIO_v2_5dev::BuiltinTransform", i32, i64 }
%"class.OpenColorIO_v2_5dev::BuiltinTransform" = type { %"class.OpenColorIO_v2_5dev::Transform" }
%"class.OpenColorIO_v2_5dev::Transform" = type { ptr }

@_ZTIN19OpenColorIO_v2_5dev16BuiltinTransformE = linkonce_odr constant { ptr, ptr, ptr } { ptr getelementptr inbounds (ptr, ptr @_ZTVN10__cxxabiv120__si_class_type_infoE, i64 2), ptr @_ZTSN19OpenColorIO_v2_5dev16BuiltinTransformE, ptr @_ZTIN19OpenColorIO_v2_5dev9TransformE }, comdat, align 8
@_ZTIN19OpenColorIO_v2_5dev20BuiltinTransformImplE = hidden constant { ptr, ptr, ptr } { ptr getelementptr inbounds (ptr, ptr @_ZTVN10__cxxabiv120__si_class_type_infoE, i64 2), ptr @_ZTSN19OpenColorIO_v2_5dev20BuiltinTransformImplE, ptr @_ZTIN19OpenColorIO_v2_5dev16BuiltinTransformE }, align 8

; Function Attrs: mustprogress nounwind uwtable
define hidden noundef i64 @_ZNK19OpenColorIO_v2_5dev20BuiltinTransformImpl17getTransformIndexEv(ptr noundef nonnull align 8 dereferenceable(24) %0) #3 align 2 {
  %2 = alloca ptr, align 8
  store ptr %0, ptr %2, align 8, !tbaa !3
  %3 = load ptr, ptr %2, align 8
  %4 = getelementptr inbounds nuw %"class.OpenColorIO_v2_5dev::BuiltinTransformImpl", ptr %3, i32 0, i32 2
  %5 = load i64, ptr %4, align 8, !tbaa !16
  ret i64 %5
}

; Function Attrs: mustprogress uwtable
define hidden void @_ZN19OpenColorIO_v2_5dev15BuildBuiltinOpsERNS_10OpRcPtrVecERKNS_16BuiltinTransformENS_18TransformDirectionE(ptr noundef nonnull align 8 dereferenceable(144) %0, ptr noundef nonnull align 8 dereferenceable(8) %1, i32 noundef %2) #0 {
  %4 = alloca ptr, align 8
  %5 = alloca ptr, align 8
  %6 = alloca i32, align 4
  %7 = alloca i32, align 4
  %8 = alloca ptr, align 8
  store ptr %0, ptr %4, align 8, !tbaa !44
  store ptr %1, ptr %5, align 8, !tbaa !17
  store i32 %2, ptr %6, align 4, !tbaa !28
  call void @llvm.lifetime.start.p0(i64 4, ptr %7) #19
  %9 = load i32, ptr %6, align 4, !tbaa !28
  %10 = load ptr, ptr %5, align 8, !tbaa !17
  %11 = load ptr, ptr %10, align 8, !tbaa !8
  %12 = getelementptr inbounds ptr, ptr %11, i64 1
  %13 = load ptr, ptr %12, align 8
  %14 = call noundef i32 %13(ptr noundef nonnull align 8 dereferenceable(8) %10) #19
  %15 = call noundef i32 @_ZN19OpenColorIO_v2_5dev26CombineTransformDirectionsENS_18TransformDirectionES0_(i32 noundef %9, i32 noundef %14)
  store i32 %15, ptr %7, align 4, !tbaa !28
  call void @llvm.lifetime.start.p0(i64 8, ptr %8) #19
  %16 = load ptr, ptr %5, align 8, !tbaa !17
  %17 = icmp eq ptr %16, null
  br i1 %17, label %20, label %18

18:                                               ; preds = %3
  %19 = call ptr @__dynamic_cast(ptr %16, ptr @_ZTIN19OpenColorIO_v2_5dev16BuiltinTransformE, ptr @_ZTIN19OpenColorIO_v2_5dev20BuiltinTransformImplE, i64 0) #19
  br label %21

20:                                               ; preds = %3
  br label %21

21:                                               ; preds = %20, %18
  %22 = phi ptr [ %19, %18 ], [ null, %20 ]
  store ptr %22, ptr %8, align 8, !tbaa !3
  %23 = load ptr, ptr %4, align 8, !tbaa !44
  %24 = load ptr, ptr %8, align 8, !tbaa !3
  %25 = call noundef i64 @_ZNK19OpenColorIO_v2_5dev20BuiltinTransformImpl17getTransformIndexEv(ptr noundef nonnull align 8 dereferenceable(24) %24) #19
  %26 = load i32, ptr %7, align 4, !tbaa !28
  call void @_ZN19OpenColorIO_v2_5dev25CreateBuiltinTransformOpsERNS_10OpRcPtrVecEmNS_18TransformDirectionE(ptr noundef nonnull align 8 dereferenceable(144) %23, i64 noundef %25, i32 noundef %26)
  call void @llvm.lifetime.end.p0(i64 8, ptr %8) #19
  call void @llvm.lifetime.end.p0(i64 4, ptr %7) #19
  ret void
}