; Function Attrs: mustprogress uwtable
define hidden void @_ZN19OpenColorIO_v2_5dev15BuildBuiltinOpsERNS_10OpRcPtrVecERKNS_16BuiltinTransformENS_18TransformDirectionE(ptr noundef nonnull align 8 dereferenceable(144) %0, ptr noundef nonnull align 8 dereferenceable(8) %1, i32 noundef %2) local_unnamed_addr #0 {
  %4 = load ptr, ptr %1, align 8, !tbaa !3
  %5 = getelementptr inbounds nuw i8, ptr %4, i64 8
  %6 = load ptr, ptr %5, align 8
  %7 = tail call noundef i32 %6(ptr noundef nonnull align 8 dereferenceable(8) %1) #20
  %8 = tail call noundef i32 @_ZN19OpenColorIO_v2_5dev26CombineTransformDirectionsENS_18TransformDirectionES0_(i32 noundef %2, i32 noundef %7)
  %9 = tail call ptr @__dynamic_cast(ptr nonnull %1, ptr nonnull @_ZTIN19OpenColorIO_v2_5dev16BuiltinTransformE, ptr nonnull @_ZTIN19OpenColorIO_v2_5dev20BuiltinTransformImplE, i64 0) #20
  %10 = getelementptr inbounds nuw i8, ptr %9, i64 16
  %11 = load i64, ptr %10, align 8, !tbaa !6
  tail call void @_ZN19OpenColorIO_v2_5dev25CreateBuiltinTransformOpsERNS_10OpRcPtrVecEmNS_18TransformDirectionE(ptr noundef nonnull align 8 dereferenceable(144) %0, i64 noundef %11, i32 noundef %8)
  ret void
}